target datalayout = "e-m:e-p270:32:32-p271:32:32-p272:64:64-i64:64-i128:128-f80:128-n8:16:32:64-S128"
target triple = "x86_64-pc-linux-gnu"

%class.ref_vector = type { %class.ref_vector_core }
%class.ref_vector_core = type { %class.ref_manager_wrapper, %class.ptr_vector }
%class.ref_manager_wrapper = type { ptr }
%class.ptr_vector = type { %class.vector }
%class.vector = type { ptr }
%class.small_object_allocator = type { [32 x ptr], [32 x ptr], i64 }
%class.num_occurs = type { ptr, i8, i8, [6 x i8], %class.obj_map.33 }
%class.obj_map.33 = type { %class.core_hashtable.34 }
%class.core_hashtable.34 = type <{ ptr, i32, i32, i32, [4 x i8] }>
%class.ctx_simplify_tactic = type { %class.tactic.base, ptr, %class.params_ref }
%class.tactic.base = type <{ %"class.user_propagator::core", i32 }>
%"class.user_propagator::core" = type { ptr }
%class.params_ref = type { ptr }
%"struct.ctx_simplify_tactic::imp" = type <{ ptr, ptr, %class.small_object_allocator, %class.svector.38, %class.vector.40, i32, i32, %class.goal_num_occurs, %class.mk_simplified_app, i64, i32, i32, i8, [7 x i8] }>
%class.svector.38 = type { %class.vector.39 }
%class.vector.39 = type { ptr }
%class.vector.40 = type { ptr }
%class.goal_num_occurs = type { %class.num_occurs, %class.ref_vector }
%class.mk_simplified_app = type { ptr }

@.str = private unnamed_addr constant [10 x i8] c"max_depth\00", align 1
@.str.11 = private unnamed_addr constant [11 x i8] c"max_memory\00", align 1
@.str.12 = private unnamed_addr constant [10 x i8] c"max_steps\00", align 1
@.str.13 = private unnamed_addr constant [15 x i8] c"bail_on_blowup\00", align 1

; Function Attrs: inlinehint mustprogress nounwind uwtable
define linkonce_odr hidden noundef i64 @_Z18megabytes_to_bytesj(i32 noundef %0) #5 comdat {
  %2 = alloca i64, align 8
  %3 = alloca i32, align 4
  %4 = alloca i64, align 8
  %5 = alloca i64, align 8
  store i32 %0, ptr %3, align 4, !tbaa !48
  %6 = load i32, ptr %3, align 4, !tbaa !48
  %7 = icmp eq i32 %6, -1
  br i1 %7, label %8, label %9

8:                                                ; preds = %1
  store i64 -1, ptr %2, align 8
  br label %21

9:                                                ; preds = %1
  call void @llvm.lifetime.start.p0(i64 8, ptr %4) #3
  %10 = load i32, ptr %3, align 4, !tbaa !48
  %11 = zext i32 %10 to i64
  %12 = mul i64 %11, 1024
  %13 = mul i64 %12, 1024
  store i64 %13, ptr %4, align 8, !tbaa !306
  call void @llvm.lifetime.start.p0(i64 8, ptr %5) #3
  %14 = load i64, ptr %4, align 8, !tbaa !306
  store i64 %14, ptr %5, align 8, !tbaa !213
  %15 = load i64, ptr %5, align 8, !tbaa !213
  %16 = load i64, ptr %4, align 8, !tbaa !306
  %17 = icmp ne i64 %15, %16
  br i1 %17, label %18, label %19

18:                                               ; preds = %9
  store i64 -1, ptr %5, align 8, !tbaa !213
  br label %19

19:                                               ; preds = %18, %9
  %20 = load i64, ptr %5, align 8, !tbaa !213
  store i64 %20, ptr %2, align 8
  call void @llvm.lifetime.end.p0(i64 8, ptr %5) #3
  call void @llvm.lifetime.end.p0(i64 8, ptr %4) #3
  br label %21

21:                                               ; preds = %19, %8
  %22 = load i64, ptr %2, align 8
  ret i64 %22
}

; Function Attrs: mustprogress uwtable
define linkonce_odr hidden void @_ZN19ctx_simplify_tactic3imp11updt_paramsERK10params_ref(ptr noundef nonnull align 8 dereferenceable(641) %0, ptr noundef nonnull align 8 dereferenceable(8) %1) #4 comdat align 2 {
  %3 = alloca ptr, align 8
  %4 = alloca ptr, align 8
  store ptr %0, ptr %3, align 8, !tbaa !148
  store ptr %1, ptr %4, align 8, !tbaa !134
  %5 = load ptr, ptr %3, align 8
  %6 = load ptr, ptr %4, align 8, !tbaa !134
  %7 = call noundef i32 @_ZNK10params_ref8get_uintEPKcj(ptr noundef nonnull align 8 dereferenceable(8) %6, ptr noundef @.str.11, i32 noundef -1)
  %8 = call noundef i64 @_Z18megabytes_to_bytesj(i32 noundef %7)
  %9 = getelementptr inbounds nuw %"struct.ctx_simplify_tactic::imp", ptr %5, i32 0, i32 9
  store i64 %8, ptr %9, align 8, !tbaa !165
  %10 = load ptr, ptr %4, align 8, !tbaa !134
  %11 = call noundef i32 @_ZNK10params_ref8get_uintEPKcj(ptr noundef nonnull align 8 dereferenceable(8) %10, ptr noundef @.str.12, i32 noundef -1)
  %12 = getelementptr inbounds nuw %"struct.ctx_simplify_tactic::imp", ptr %5, i32 0, i32 11
  store i32 %11, ptr %12, align 4, !tbaa !166
  %13 = load ptr, ptr %4, align 8, !tbaa !134
  %14 = call noundef i32 @_ZNK10params_ref8get_uintEPKcj(ptr noundef nonnull align 8 dereferenceable(8) %13, ptr noundef @.str, i32 noundef 1024)
  %15 = getelementptr inbounds nuw %"struct.ctx_simplify_tactic::imp", ptr %5, i32 0, i32 10
  store i32 %14, ptr %15, align 8, !tbaa !167
  %16 = load ptr, ptr %4, align 8, !tbaa !134
  %17 = call noundef zeroext i1 @_ZNK10params_ref8get_boolEPKcb(ptr noundef nonnull align 8 dereferenceable(8) %16, ptr noundef @.str.13, i1 noundef zeroext false)
  %18 = getelementptr inbounds nuw %"struct.ctx_simplify_tactic::imp", ptr %5, i32 0, i32 12
  %19 = zext i1 %17 to i8
  store i8 %19, ptr %18, align 8, !tbaa !168
  %20 = getelementptr inbounds nuw %"struct.ctx_simplify_tactic::imp", ptr %5, i32 0, i32 1
  %21 = load ptr, ptr %20, align 8, !tbaa !149
  %22 = load ptr, ptr %4, align 8, !tbaa !134
  %23 = load ptr, ptr %21, align 8, !tbaa !10
  %24 = getelementptr inbounds ptr, ptr %23, i64 8
  %25 = load ptr, ptr %24, align 8
  call void %25(ptr noundef nonnull align 8 dereferenceable(16) %21, ptr noundef nonnull align 8 dereferenceable(8) %22)
  ret void
}

; Function Attrs: mustprogress uwtable
define linkonce_odr hidden void @_ZN10params_ref6appendERKS_(ptr noundef nonnull align 8 dereferenceable(8) %0, ptr noundef nonnull align 8 dereferenceable(8) %1) #4 comdat align 2 {
  %3 = alloca ptr, align 8
  %4 = alloca ptr, align 8
  store ptr %0, ptr %3, align 8, !tbaa !134
  store ptr %1, ptr %4, align 8, !tbaa !134
  %5 = load ptr, ptr %3, align 8
  %6 = load ptr, ptr %4, align 8, !tbaa !134
  call void @_ZN10params_ref4copyERKS_(ptr noundef nonnull align 8 dereferenceable(8) %5, ptr noundef nonnull align 8 dereferenceable(8) %6)
  ret void
}

; Function Attrs: mustprogress uwtable
define hidden void @_ZN19ctx_simplify_tactic11updt_paramsERK10params_ref(ptr noundef nonnull align 8 dereferenceable(32) %0, ptr noundef nonnull align 8 dereferenceable(8) %1) unnamed_addr #4 align 2 {
  %3 = alloca ptr, align 8
  %4 = alloca ptr, align 8
  store ptr %0, ptr %3, align 8, !tbaa !136
  store ptr %1, ptr %4, align 8, !tbaa !134
  %5 = load ptr, ptr %3, align 8
  %6 = getelementptr inbounds nuw %class.ctx_simplify_tactic, ptr %5, i32 0, i32 2
  %7 = load ptr, ptr %4, align 8, !tbaa !134
  call void @_ZN10params_ref6appendERKS_(ptr noundef nonnull align 8 dereferenceable(8) %6, ptr noundef nonnull align 8 dereferenceable(8) %7)
  %8 = getelementptr inbounds nuw %class.ctx_simplify_tactic, ptr %5, i32 0, i32 1
  %9 = load ptr, ptr %8, align 8, !tbaa !138
  %10 = getelementptr inbounds nuw %class.ctx_simplify_tactic, ptr %5, i32 0, i32 2
  call void @_ZN19ctx_simplify_tactic3imp11updt_paramsERK10params_ref(ptr noundef nonnull align 8 dereferenceable(641) %9, ptr noundef nonnull align 8 dereferenceable(8) %10)
  ret void
}