; Function Attrs: mustprogress uwtable
define hidden void @_ZN19ctx_simplify_tactic11updt_paramsERK10params_ref(ptr noundef nonnull align 8 dereferenceable(32) %0, ptr noundef nonnull align 8 dereferenceable(8) %1) unnamed_addr #3 align 2 {
  %3 = getelementptr inbounds nuw i8, ptr %0, i64 24
  tail call void @_ZN10params_ref4copyERKS_(ptr noundef nonnull align 8 dereferenceable(8) %3, ptr noundef nonnull align 8 dereferenceable(8) %1)
  %4 = getelementptr inbounds nuw i8, ptr %0, i64 16
  %5 = load ptr, ptr %4, align 8, !tbaa !86
  %6 = tail call noundef i32 @_ZNK10params_ref8get_uintEPKcj(ptr noundef nonnull align 8 dereferenceable(8) %3, ptr noundef nonnull @.str.11, i32 noundef -1)
  %7 = icmp eq i32 %6, -1
  %8 = zext i32 %6 to i64
  %9 = shl nuw nsw i64 %8, 20
  %.0.i.i = select i1 %7, i64 -1, i64 %9
  %10 = getelementptr inbounds nuw i8, ptr %5, i64 624
  store i64 %.0.i.i, ptr %10, align 8, !tbaa !114
  %11 = tail call noundef i32 @_ZNK10params_ref8get_uintEPKcj(ptr noundef nonnull align 8 dereferenceable(8) %3, ptr noundef nonnull @.str.12, i32 noundef -1)
  %12 = getelementptr inbounds nuw i8, ptr %5, i64 636
  store i32 %11, ptr %12, align 4, !tbaa !115
  %13 = tail call noundef i32 @_ZNK10params_ref8get_uintEPKcj(ptr noundef nonnull align 8 dereferenceable(8) %3, ptr noundef nonnull @.str, i32 noundef 1024)
  %14 = getelementptr inbounds nuw i8, ptr %5, i64 632
  store i32 %13, ptr %14, align 8, !tbaa !116
  %15 = tail call noundef zeroext i1 @_ZNK10params_ref8get_boolEPKcb(ptr noundef nonnull align 8 dereferenceable(8) %3, ptr noundef nonnull @.str.13, i1 noundef zeroext false)
  %16 = getelementptr inbounds nuw i8, ptr %5, i64 640
  %17 = zext i1 %15 to i8
  store i8 %17, ptr %16, align 8, !tbaa !117
  %18 = getelementptr inbounds nuw i8, ptr %5, i64 8
  %19 = load ptr, ptr %18, align 8, !tbaa !91
  %20 = load ptr, ptr %19, align 8, !tbaa !3
  %21 = getelementptr inbounds nuw i8, ptr %20, i64 64
  %22 = load ptr, ptr %21, align 8
  tail call void %22(ptr noundef nonnull align 8 dereferenceable(16) %19, ptr noundef nonnull align 8 dereferenceable(8) %3)
  ret void
}